MODULE Linux x86 1A453E75A6165B2D8B262DFE2B8681110 lt-freeswitch
FUNC 1204 32 0 handle_SIGILL
FUNC 1236 1a 0 handle_SIGUSR2
FUNC 1250 59 0 handle_SIGCHLD
FUNC 12a9 1c3 0 freeswitch_kill_background
FUNC 146c 31a 0 daemonize
FUNC 1786 1f52 0 main
STACK CFI INIT d80 3d0 .cfa: $esp 8 + .ra: .cfa -4 + ^
STACK CFI d86 .cfa: $esp 12 +
STACK CFI INIT 1204 32 .cfa: $esp 4 + .ra: .cfa -4 + ^
STACK CFI 1205 $ebp: .cfa -8 + ^ .cfa: $esp 8 +
STACK CFI 1207 .cfa: $ebp 8 +
STACK CFI 120b $ebx: .cfa -12 + ^
STACK CFI 1234 $ebx: $ebx
STACK CFI 1235 $ebp: $ebp .cfa: $esp 4 +
STACK CFI INIT 1236 1a .cfa: $esp 4 + .ra: .cfa -4 + ^
STACK CFI 1237 $ebp: .cfa -8 + ^ .cfa: $esp 8 +
STACK CFI 1239 .cfa: $ebp 8 +
STACK CFI 124f $ebp: $ebp .cfa: $esp 4 +
STACK CFI INIT 1250 59 .cfa: $esp 4 + .ra: .cfa -4 + ^
STACK CFI 1251 $ebp: .cfa -8 + ^ .cfa: $esp 8 +
STACK CFI 1253 .cfa: $ebp 8 +
STACK CFI 1257 $ebx: .cfa -12 + ^
STACK CFI 12a7 $ebx: $ebx
STACK CFI 12a8 $ebp: $ebp .cfa: $esp 4 +
STACK CFI INIT 12a9 1c3 .cfa: $esp 4 + .ra: .cfa -4 + ^
STACK CFI 12aa $ebp: .cfa -8 + ^ .cfa: $esp 8 +
STACK CFI 12ac .cfa: $ebp 8 +
STACK CFI 12b5 $ebx: .cfa -20 + ^ $edi: .cfa -12 + ^ $esi: .cfa -16 + ^
STACK CFI 1468 $ebx: $ebx
STACK CFI 1469 $esi: $esi
STACK CFI 146a $edi: $edi
STACK CFI 146b $ebp: $ebp .cfa: $esp 4 +
STACK CFI INIT 146c 31a .cfa: $esp 4 + .ra: .cfa -4 + ^
STACK CFI 146d $ebp: .cfa -8 + ^ .cfa: $esp 8 +
STACK CFI 146f .cfa: $ebp 8 +
STACK CFI 1474 $ebx: .cfa -16 + ^ $esi: .cfa -12 + ^
STACK CFI 1783 $ebx: $ebx
STACK CFI 1784 $esi: $esi
STACK CFI 1785 $ebp: $ebp .cfa: $esp 4 +
STACK CFI INIT 1786 1f52 .cfa: $esp 4 + .ra: .cfa -4 + ^
STACK CFI 1787 $ebp: .cfa -8 + ^ .cfa: $esp 8 +
STACK CFI 1789 .cfa: $ebp 8 +
STACK CFI 1795 $ebx: .cfa -20 + ^ $edi: .cfa -12 + ^ $esi: .cfa -16 + ^
STACK CFI 36d4 $ebx: $ebx
STACK CFI 36d5 $esi: $esi
STACK CFI 36d6 $edi: $edi
STACK CFI 36d7 $ebp: $ebp .cfa: $esp 4 +
STACK CFI INIT 36d8 4 .cfa: $esp 4 + .ra: .cfa -4 + ^
STACK CFI INIT 36dc 4 .cfa: $esp 4 + .ra: .cfa -4 + ^
STACK CFI INIT 36e0 61 .cfa: $esp 4 + .ra: .cfa -4 + ^
STACK CFI 36e1 $ebp: .cfa -8 + ^ .cfa: $esp 8 +
STACK CFI 36e2 $edi: .cfa -12 + ^ .cfa: $esp 12 +
STACK CFI 36e3 $esi: .cfa -16 + ^ .cfa: $esp 16 +
STACK CFI 36e4 $ebx: .cfa -20 + ^ .cfa: $esp 20 +
STACK CFI 36f2 .cfa: $esp 48 +
STACK CFI 373c .cfa: $esp 20 +
STACK CFI 373d $ebx: $ebx .cfa: $esp 16 +
STACK CFI 373e $esi: $esi .cfa: $esp 12 +
STACK CFI 373f $edi: $edi .cfa: $esp 8 +
STACK CFI 3740 $ebp: $ebp .cfa: $esp 4 +
STACK CFI INIT 3750 2 .cfa: $esp 4 + .ra: .cfa -4 + ^
STACK CFI INIT 3760 11 .cfa: $esp 4 + .ra: .cfa -4 + ^
STACK CFI 3761 $ebx: .cfa -8 + ^ .cfa: $esp 8 +
